target datalayout = "e-m:e-p270:32:32-p271:32:32-p272:64:64-i64:64-i128:128-f80:128-n8:16:32:64-S128"
target triple = "x86_64-unknown-linux-gnu"

%"struct.facebook::velox::memory::MemoryReclaimer::Stats" = type { i64, i64, i64, i64 }

; Function Attrs: mustprogress nounwind uwtable
define noundef zeroext i1 @_ZNK8facebook5velox6memory15MemoryReclaimer5StatseqERKS3_(ptr noundef nonnull align 8 dereferenceable(32) %this, ptr noundef nonnull align 8 dereferenceable(32) %other) #2 align 2 {
entry:
  %this.addr = alloca ptr, align 8
  %other.addr = alloca ptr, align 8
  store ptr %this, ptr %this.addr, align 8
  store ptr %other, ptr %other.addr, align 8
  %this1 = load ptr, ptr %this.addr, align 8
  %numNonReclaimableAttempts = getelementptr inbounds %"struct.facebook::velox::memory::MemoryReclaimer::Stats", ptr %this1, i32 0, i32 0
  %0 = load i64, ptr %numNonReclaimableAttempts, align 8
  %1 = load ptr, ptr %other.addr, align 8
  %numNonReclaimableAttempts2 = getelementptr inbounds %"struct.facebook::velox::memory::MemoryReclaimer::Stats", ptr %1, i32 0, i32 0
  %2 = load i64, ptr %numNonReclaimableAttempts2, align 8
  %cmp = icmp eq i64 %0, %2
  br i1 %cmp, label %land.lhs.true, label %land.end

land.lhs.true:                                    ; preds = %entry
  %reclaimExecTimeUs = getelementptr inbounds %"struct.facebook::velox::memory::MemoryReclaimer::Stats", ptr %this1, i32 0, i32 1
  %3 = load i64, ptr %reclaimExecTimeUs, align 8
  %4 = load ptr, ptr %other.addr, align 8
  %reclaimExecTimeUs3 = getelementptr inbounds %"struct.facebook::velox::memory::MemoryReclaimer::Stats", ptr %4, i32 0, i32 1
  %5 = load i64, ptr %reclaimExecTimeUs3, align 8
  %cmp4 = icmp eq i64 %3, %5
  br i1 %cmp4, label %land.lhs.true5, label %land.end

land.lhs.true5:                                   ; preds = %land.lhs.true
  %reclaimedBytes = getelementptr inbounds %"struct.facebook::velox::memory::MemoryReclaimer::Stats", ptr %this1, i32 0, i32 2
  %6 = load i64, ptr %reclaimedBytes, align 8
  %7 = load ptr, ptr %other.addr, align 8
  %reclaimedBytes6 = getelementptr inbounds %"struct.facebook::velox::memory::MemoryReclaimer::Stats", ptr %7, i32 0, i32 2
  %8 = load i64, ptr %reclaimedBytes6, align 8
  %cmp7 = icmp eq i64 %6, %8
  br i1 %cmp7, label %land.rhs, label %land.end

land.rhs:                                         ; preds = %land.lhs.true5
  %reclaimWaitTimeUs = getelementptr inbounds %"struct.facebook::velox::memory::MemoryReclaimer::Stats", ptr %this1, i32 0, i32 3
  %9 = load i64, ptr %reclaimWaitTimeUs, align 8
  %10 = load ptr, ptr %other.addr, align 8
  %reclaimWaitTimeUs8 = getelementptr inbounds %"struct.facebook::velox::memory::MemoryReclaimer::Stats", ptr %10, i32 0, i32 3
  %11 = load i64, ptr %reclaimWaitTimeUs8, align 8
  %cmp9 = icmp eq i64 %9, %11
  br label %land.end

land.end:                                         ; preds = %land.rhs, %land.lhs.true5, %land.lhs.true, %entry
  %12 = phi i1 [ false, %land.lhs.true5 ], [ false, %land.lhs.true ], [ false, %entry ], [ %cmp9, %land.rhs ]
  ret i1 %12
}

; Function Attrs: mustprogress nounwind uwtable
define noundef zeroext i1 @_ZNK8facebook5velox6memory15MemoryReclaimer5StatsneERKS3_(ptr noundef nonnull align 8 dereferenceable(32) %this, ptr noundef nonnull align 8 dereferenceable(32) %other) #2 align 2 {
entry:
  %this.addr = alloca ptr, align 8
  %other.addr = alloca ptr, align 8
  store ptr %this, ptr %this.addr, align 8
  store ptr %other, ptr %other.addr, align 8
  %this1 = load ptr, ptr %this.addr, align 8
  %0 = load ptr, ptr %other.addr, align 8
  %call = call noundef zeroext i1 @_ZNK8facebook5velox6memory15MemoryReclaimer5StatseqERKS3_(ptr noundef nonnull align 8 dereferenceable(32) %this1, ptr noundef nonnull align 8 dereferenceable(32) %0)
  %lnot = xor i1 %call, true
  ret i1 %lnot
}