; Function Attrs: mustprogress nofree norecurse nosync nounwind willreturn memory(argmem: read) uwtable
define noundef zeroext i1 @_ZNK8facebook5velox6memory15MemoryReclaimer5StatsneERKS3_(ptr nocapture noundef nonnull readonly align 8 dereferenceable(32) %this, ptr nocapture noundef nonnull readonly align 8 dereferenceable(32) %other) local_unnamed_addr #9 align 2 {
entry:
  %0 = load i64, ptr %this, align 8
  %1 = load i64, ptr %other, align 8
  %cmp.i = icmp eq i64 %0, %1
  br i1 %cmp.i, label %land.lhs.true.i, label %_ZNK8facebook5velox6memory15MemoryReclaimer5StatseqERKS3_.exit

land.lhs.true.i:                                  ; preds = %entry
  %reclaimExecTimeUs.i = getelementptr inbounds i8, ptr %this, i64 8
  %2 = load i64, ptr %reclaimExecTimeUs.i, align 8
  %reclaimExecTimeUs3.i = getelementptr inbounds i8, ptr %other, i64 8
  %3 = load i64, ptr %reclaimExecTimeUs3.i, align 8
  %cmp4.i = icmp eq i64 %2, %3
  br i1 %cmp4.i, label %land.lhs.true5.i, label %_ZNK8facebook5velox6memory15MemoryReclaimer5StatseqERKS3_.exit

land.lhs.true5.i:                                 ; preds = %land.lhs.true.i
  %reclaimedBytes.i = getelementptr inbounds i8, ptr %this, i64 16
  %4 = load i64, ptr %reclaimedBytes.i, align 8
  %reclaimedBytes6.i = getelementptr inbounds i8, ptr %other, i64 16
  %5 = load i64, ptr %reclaimedBytes6.i, align 8
  %cmp7.i = icmp eq i64 %4, %5
  br i1 %cmp7.i, label %land.rhs.i, label %_ZNK8facebook5velox6memory15MemoryReclaimer5StatseqERKS3_.exit

land.rhs.i:                                       ; preds = %land.lhs.true5.i
  %reclaimWaitTimeUs.i = getelementptr inbounds i8, ptr %this, i64 24
  %6 = load i64, ptr %reclaimWaitTimeUs.i, align 8
  %reclaimWaitTimeUs8.i = getelementptr inbounds i8, ptr %other, i64 24
  %7 = load i64, ptr %reclaimWaitTimeUs8.i, align 8
  %cmp9.i = icmp ne i64 %6, %7
  br label %_ZNK8facebook5velox6memory15MemoryReclaimer5StatseqERKS3_.exit

_ZNK8facebook5velox6memory15MemoryReclaimer5StatseqERKS3_.exit: ; preds = %entry, %land.lhs.true.i, %land.lhs.true5.i, %land.rhs.i
  %lnot = phi i1 [ true, %land.lhs.true5.i ], [ true, %land.lhs.true.i ], [ true, %entry ], [ %cmp9.i, %land.rhs.i ]
  ret i1 %lnot
}